target datalayout = "e-m:e-p270:32:32-p271:32:32-p272:64:64-i64:64-i128:128-f80:128-n8:16:32:64-S128"
target triple = "x86_64-pc-linux-gnu"

%struct.LogicalRepBeginData = type { i64, i64, i32 }

@.str = private unnamed_addr constant [35 x i8] c"final_lsn not set in begin message\00", align 1
@.str.1 = private unnamed_addr constant [8 x i8] c"proto.c\00", align 1
@__func__.logicalrep_read_begin = private unnamed_addr constant [22 x i8] c"logicalrep_read_begin\00", align 1

; Function Attrs: nounwind uwtable
define dso_local void @logicalrep_read_begin(ptr noundef %0, ptr noundef %1) #0 {
  %3 = alloca ptr, align 8
  %4 = alloca ptr, align 8
  store ptr %0, ptr %3, align 8
  store ptr %1, ptr %4, align 8
  %5 = load ptr, ptr %3, align 8
  %6 = call i64 @pq_getmsgint64(ptr noundef %5)
  %7 = load ptr, ptr %4, align 8
  %8 = getelementptr inbounds nuw %struct.LogicalRepBeginData, ptr %7, i32 0, i32 0
  store i64 %6, ptr %8, align 8
  %9 = load ptr, ptr %4, align 8
  %10 = getelementptr inbounds nuw %struct.LogicalRepBeginData, ptr %9, i32 0, i32 0
  %11 = load i64, ptr %10, align 8
  %12 = icmp eq i64 %11, 0
  br i1 %12, label %13, label %23

13:                                               ; preds = %2
  br label %14

14:                                               ; preds = %13
  br i1 true, label %15, label %17

15:                                               ; preds = %14
  %16 = call zeroext i1 @errstart_cold(i32 noundef 21, ptr noundef null) #8
  br i1 %16, label %19, label %21

17:                                               ; preds = %14
  %18 = call zeroext i1 @errstart(i32 noundef 21, ptr noundef null)
  br i1 %18, label %19, label %21

19:                                               ; preds = %17, %15
  %20 = call i32 (ptr, ...) @errmsg_internal(ptr noundef @.str)
  call void @errfinish(ptr noundef @.str.1, i32 noundef 68, ptr noundef @__func__.logicalrep_read_begin)
  br label %21

21:                                               ; preds = %19, %17, %15
  unreachable

22:                                               ; No predecessors!
  br label %23

23:                                               ; preds = %22, %2
  %24 = load ptr, ptr %3, align 8
  %25 = call i64 @pq_getmsgint64(ptr noundef %24)
  %26 = load ptr, ptr %4, align 8
  %27 = getelementptr inbounds nuw %struct.LogicalRepBeginData, ptr %26, i32 0, i32 1
  store i64 %25, ptr %27, align 8
  %28 = load ptr, ptr %3, align 8
  %29 = call i32 @pq_getmsgint(ptr noundef %28, i32 noundef 4)
  %30 = load ptr, ptr %4, align 8
  %31 = getelementptr inbounds nuw %struct.LogicalRepBeginData, ptr %30, i32 0, i32 2
  store i32 %29, ptr %31, align 8
  ret void
}