; Function Attrs: nounwind uwtable
define dso_local void @logicalrep_read_begin(ptr noundef %0, ptr noundef writeonly captures(none) initializes((0, 8)) %1) local_unnamed_addr #0 {
  %3 = tail call i64 @pq_getmsgint64(ptr noundef %0) #8
  store i64 %3, ptr %1, align 8
  %4 = icmp eq i64 %3, 0
  br i1 %4, label %5, label %8

5:                                                ; preds = %2
  %6 = tail call zeroext i1 @errstart_cold(i32 noundef 21, ptr noundef null) #9
  tail call void @llvm.assume(i1 %6)
  %7 = tail call i32 (ptr, ...) @errmsg_internal(ptr noundef nonnull @.str) #8
  tail call void @errfinish(ptr noundef nonnull @.str.1, i32 noundef 68, ptr noundef nonnull @__func__.logicalrep_read_begin) #8
  unreachable

8:                                                ; preds = %2
  %9 = tail call i64 @pq_getmsgint64(ptr noundef %0) #8
  %10 = getelementptr inbounds nuw i8, ptr %1, i64 8
  store i64 %9, ptr %10, align 8
  %11 = tail call i32 @pq_getmsgint(ptr noundef %0, i32 noundef 4) #8
  %12 = getelementptr inbounds nuw i8, ptr %1, i64 16
  store i32 %11, ptr %12, align 8
  ret void
}